target datalayout = "e-m:e-p270:32:32-p271:32:32-p272:64:64-i64:64-i128:128-f80:128-n8:16:32:64-S128"
target triple = "x86_64-pc-linux-gnu"

%class.btVector3 = type { [4 x float] }
%class.btSoftRigidDynamicsWorld = type <{ %class.btDiscreteDynamicsWorld.base, [4 x i8], %class.btAlignedObjectArray.8, i32, i8, i8, i8, i8, %struct.btSoftBodyWorldInfo, ptr, i8, [7 x i8] }>
%class.btDiscreteDynamicsWorld.base = type <{ %class.btDynamicsWorld, %class.btAlignedObjectArray.0, ptr, ptr, ptr, %class.btAlignedObjectArray.0, %class.btAlignedObjectArray.2, %class.btVector3, float, float, i8, i8, i8, i8, [4 x i8], %class.btAlignedObjectArray.4, i32, i8, [3 x i8], %class.btAlignedObjectArray.6, %class.btSpinMutex }>
%class.btDynamicsWorld = type { %class.btCollisionWorld.base, ptr, ptr, ptr, %struct.btContactSolverInfo }
%class.btCollisionWorld.base = type <{ ptr, %class.btAlignedObjectArray, ptr, %struct.btDispatcherInfo, ptr, ptr, i8 }>
%class.btAlignedObjectArray = type <{ [4 x i8], i32, i32, [4 x i8], ptr, i8, [7 x i8] }>
%struct.btDispatcherInfo = type <{ float, i32, i32, float, i8, [7 x i8], ptr, i8, i8, i8, i8, float, i8, [3 x i8], float, i8, [7 x i8] }>
%struct.btContactSolverInfo = type { %struct.btContactSolverInfoData }
%struct.btContactSolverInfoData = type { float, float, float, float, float, i32, float, float, float, float, float, float, float, float, float, float, i32, float, float, float, float, float, i32, i32, i32, float, float, float, float, i8, i8, i32, i32 }
%class.btAlignedObjectArray.0 = type <{ [4 x i8], i32, i32, [4 x i8], ptr, i8, [7 x i8] }>
%class.btAlignedObjectArray.2 = type <{ [4 x i8], i32, i32, [4 x i8], ptr, i8, [7 x i8] }>
%class.btAlignedObjectArray.4 = type <{ [4 x i8], i32, i32, [4 x i8], ptr, i8, [7 x i8] }>
%class.btAlignedObjectArray.6 = type <{ [4 x i8], i32, i32, [4 x i8], ptr, i8, [7 x i8] }>
%class.btSpinMutex = type { i32 }
%class.btAlignedObjectArray.8 = type <{ [4 x i8], i32, i32, [4 x i8], ptr, i8, [7 x i8] }>
%struct.btSoftBodyWorldInfo = type { float, float, float, float, %class.btVector3, ptr, ptr, %class.btVector3, %struct.btSparseSdf }
%struct.btSparseSdf = type { %class.btAlignedObjectArray.10, float, float, i32, i32, i32, i32, i32, [4 x i8] }
%class.btAlignedObjectArray.10 = type <{ [4 x i8], i32, i32, [4 x i8], ptr, i8, [7 x i8] }>
%class.CProfileSample = type { i8 }
%class.btSoftBodySolver = type <{ ptr, i32, i32, float, [4 x i8] }>

@.str.1 = private unnamed_addr constant [21 x i8] c"solveSoftConstraints\00", align 1

; Function Attrs: mustprogress nounwind uwtable
define linkonce_odr dso_local noundef float @_ZN16btSoftBodySolver12getTimeScaleEv(ptr noundef nonnull align 8 dereferenceable(20) %0) #1 comdat align 2 {
  %2 = alloca ptr, align 8
  store ptr %0, ptr %2, align 8, !tbaa !22
  %3 = load ptr, ptr %2, align 8
  %4 = getelementptr inbounds nuw %class.btSoftBodySolver, ptr %3, i32 0, i32 3
  %5 = load float, ptr %4, align 8, !tbaa !115
  ret float %5
}

; Function Attrs: inlinehint mustprogress nounwind uwtable
define linkonce_odr dso_local noundef nonnull align 8 dereferenceable(8) ptr @_ZN20btAlignedObjectArrayIP10btSoftBodyEixEi(ptr noundef nonnull align 8 dereferenceable(25) %0, i32 noundef %1) #5 comdat align 2 {
  %3 = alloca ptr, align 8
  %4 = alloca i32, align 4
  store ptr %0, ptr %3, align 8, !tbaa !77
  store i32 %1, ptr %4, align 4, !tbaa !9
  %5 = load ptr, ptr %3, align 8
  %6 = getelementptr inbounds nuw %class.btAlignedObjectArray.8, ptr %5, i32 0, i32 4
  %7 = load ptr, ptr %6, align 8, !tbaa !114
  %8 = load i32, ptr %4, align 4, !tbaa !9
  %9 = sext i32 %8 to i64
  %10 = getelementptr inbounds ptr, ptr %7, i64 %9
  ret ptr %10
}

; Function Attrs: inlinehint mustprogress nounwind uwtable
define linkonce_odr dso_local noundef i32 @_ZNK20btAlignedObjectArrayIP10btSoftBodyE4sizeEv(ptr noundef nonnull align 8 dereferenceable(25) %0) #5 comdat align 2 {
  %2 = alloca ptr, align 8
  store ptr %0, ptr %2, align 8, !tbaa !77
  %3 = load ptr, ptr %2, align 8
  %4 = getelementptr inbounds nuw %class.btAlignedObjectArray.8, ptr %3, i32 0, i32 1
  %5 = load i32, ptr %4, align 4, !tbaa !113
  ret i32 %5
}

; Function Attrs: mustprogress uwtable
define dso_local void @_ZN24btSoftRigidDynamicsWorld26solveSoftBodiesConstraintsEf(ptr noundef nonnull align 8 dereferenceable(689) %0, float noundef %1) #2 align 2 personality ptr @__gxx_personality_v0 {
  %3 = alloca ptr, align 8
  %4 = alloca float, align 4
  %5 = alloca %class.CProfileSample, align 1
  %6 = alloca ptr, align 8
  %7 = alloca i32, align 4
  store ptr %0, ptr %3, align 8, !tbaa !12
  store float %1, ptr %4, align 4, !tbaa !75
  %8 = load ptr, ptr %3, align 8
  call void @llvm.lifetime.start.p0(i64 1, ptr %5) #14
  call void @_ZN14CProfileSampleC1EPKc(ptr noundef nonnull align 1 dereferenceable(1) %5, ptr noundef @.str.1)
  %9 = getelementptr inbounds nuw %class.btSoftRigidDynamicsWorld, ptr %8, i32 0, i32 2
  %10 = invoke noundef i32 @_ZNK20btAlignedObjectArrayIP10btSoftBodyE4sizeEv(ptr noundef nonnull align 8 dereferenceable(25) %9)
          to label %11 unwind label %16

11:                                               ; preds = %2
  %12 = icmp ne i32 %10, 0
  br i1 %12, label %13, label %20

13:                                               ; preds = %11
  %14 = getelementptr inbounds nuw %class.btSoftRigidDynamicsWorld, ptr %8, i32 0, i32 2
  invoke void @_ZN10btSoftBody13solveClustersERK20btAlignedObjectArrayIPS_E(ptr noundef nonnull align 8 dereferenceable(25) %14)
          to label %15 unwind label %16

15:                                               ; preds = %13
  br label %20

16:                                               ; preds = %27, %20, %13, %2
  %17 = landingpad { ptr, i32 }
          cleanup
  %18 = extractvalue { ptr, i32 } %17, 0
  store ptr %18, ptr %6, align 8
  %19 = extractvalue { ptr, i32 } %17, 1
  store i32 %19, ptr %7, align 4
  call void @_ZN14CProfileSampleD1Ev(ptr noundef nonnull align 1 dereferenceable(1) %5) #14
  call void @llvm.lifetime.end.p0(i64 1, ptr %5) #14
  br label %33

20:                                               ; preds = %15, %11
  %21 = getelementptr inbounds nuw %class.btSoftRigidDynamicsWorld, ptr %8, i32 0, i32 9
  %22 = load ptr, ptr %21, align 8, !tbaa !26
  %23 = load float, ptr %4, align 4, !tbaa !75
  %24 = getelementptr inbounds nuw %class.btSoftRigidDynamicsWorld, ptr %8, i32 0, i32 9
  %25 = load ptr, ptr %24, align 8, !tbaa !26
  %26 = invoke noundef float @_ZN16btSoftBodySolver12getTimeScaleEv(ptr noundef nonnull align 8 dereferenceable(20) %25)
          to label %27 unwind label %16

27:                                               ; preds = %20
  %28 = fmul float %23, %26
  %29 = load ptr, ptr %22, align 8, !tbaa !24
  %30 = getelementptr inbounds ptr, ptr %29, i64 7
  %31 = load ptr, ptr %30, align 8
  invoke void %31(ptr noundef nonnull align 8 dereferenceable(20) %22, float noundef %28)
          to label %32 unwind label %16

32:                                               ; preds = %27
  call void @_ZN14CProfileSampleD1Ev(ptr noundef nonnull align 1 dereferenceable(1) %5) #14
  call void @llvm.lifetime.end.p0(i64 1, ptr %5) #14
  ret void

33:                                               ; preds = %16
  %34 = load ptr, ptr %6, align 8
  %35 = load i32, ptr %7, align 4
  %36 = insertvalue { ptr, i32 } poison, ptr %34, 0
  %37 = insertvalue { ptr, i32 } %36, i32 %35, 1
  resume { ptr, i32 } %37
}

; Function Attrs: mustprogress nounwind uwtable
define linkonce_odr dso_local noundef nonnull align 8 dereferenceable(25) ptr @_ZN24btSoftRigidDynamicsWorld16getSoftBodyArrayEv(ptr noundef nonnull align 8 dereferenceable(689) %0) #1 comdat align 2 {
  %2 = alloca ptr, align 8
  store ptr %0, ptr %2, align 8, !tbaa !12
  %3 = load ptr, ptr %2, align 8
  %4 = getelementptr inbounds nuw %class.btSoftRigidDynamicsWorld, ptr %3, i32 0, i32 2
  ret ptr %4
}

; Function Attrs: mustprogress uwtable
define dso_local void @_ZN24btSoftRigidDynamicsWorld28internalSingleStepSimulationEf(ptr noundef nonnull align 8 dereferenceable(689) %0, float noundef %1) unnamed_addr #2 align 2 {
  %3 = alloca ptr, align 8
  %4 = alloca float, align 4
  %5 = alloca i32, align 4
  %6 = alloca ptr, align 8
  store ptr %0, ptr %3, align 8, !tbaa !12
  store float %1, ptr %4, align 4, !tbaa !75
  %7 = load ptr, ptr %3, align 8
  %8 = getelementptr inbounds nuw %class.btSoftRigidDynamicsWorld, ptr %7, i32 0, i32 9
  %9 = load ptr, ptr %8, align 8, !tbaa !26
  %10 = call noundef nonnull align 8 dereferenceable(25) ptr @_ZN24btSoftRigidDynamicsWorld16getSoftBodyArrayEv(ptr noundef nonnull align 8 dereferenceable(689) %7)
  %11 = load ptr, ptr %9, align 8, !tbaa !24
  %12 = getelementptr inbounds ptr, ptr %11, i64 4
  %13 = load ptr, ptr %12, align 8
  call void %13(ptr noundef nonnull align 8 dereferenceable(20) %9, ptr noundef nonnull align 8 dereferenceable(25) %10, i1 noundef zeroext false)
  %14 = getelementptr inbounds nuw %class.btSoftRigidDynamicsWorld, ptr %7, i32 0, i32 9
  %15 = load ptr, ptr %14, align 8, !tbaa !26
  %16 = load ptr, ptr %15, align 8, !tbaa !24
  %17 = getelementptr inbounds ptr, ptr %16, i64 3
  %18 = load ptr, ptr %17, align 8
  %19 = call noundef zeroext i1 %18(ptr noundef nonnull align 8 dereferenceable(20) %15)
  br i1 %19, label %21, label %20

20:                                               ; preds = %2
  br label %21

21:                                               ; preds = %20, %2
  %22 = load float, ptr %4, align 4, !tbaa !75
  call void @_ZN23btDiscreteDynamicsWorld28internalSingleStepSimulationEf(ptr noundef nonnull align 8 dereferenceable(508) %7, float noundef %22)
  %23 = load float, ptr %4, align 4, !tbaa !75
  call void @_ZN24btSoftRigidDynamicsWorld26solveSoftBodiesConstraintsEf(ptr noundef nonnull align 8 dereferenceable(689) %7, float noundef %23)
  call void @llvm.lifetime.start.p0(i64 4, ptr %5) #14
  store i32 0, ptr %5, align 4, !tbaa !9
  br label %24

24:                                               ; preds = %37, %21
  %25 = load i32, ptr %5, align 4, !tbaa !9
  %26 = getelementptr inbounds nuw %class.btSoftRigidDynamicsWorld, ptr %7, i32 0, i32 2
  %27 = call noundef i32 @_ZNK20btAlignedObjectArrayIP10btSoftBodyE4sizeEv(ptr noundef nonnull align 8 dereferenceable(25) %26)
  %28 = icmp slt i32 %25, %27
  br i1 %28, label %30, label %29

29:                                               ; preds = %24
  call void @llvm.lifetime.end.p0(i64 4, ptr %5) #14
  br label %40

30:                                               ; preds = %24
  call void @llvm.lifetime.start.p0(i64 8, ptr %6) #14
  %31 = getelementptr inbounds nuw %class.btSoftRigidDynamicsWorld, ptr %7, i32 0, i32 2
  %32 = load i32, ptr %5, align 4, !tbaa !9
  %33 = call noundef nonnull align 8 dereferenceable(8) ptr @_ZN20btAlignedObjectArrayIP10btSoftBodyEixEi(ptr noundef nonnull align 8 dereferenceable(25) %31, i32 noundef %32)
  %34 = load ptr, ptr %33, align 8, !tbaa !110
  store ptr %34, ptr %6, align 8, !tbaa !110
  %35 = load ptr, ptr %6, align 8, !tbaa !110
  %36 = load ptr, ptr %6, align 8, !tbaa !110
  call void @_ZN10btSoftBody23defaultCollisionHandlerEPS_(ptr noundef nonnull align 8 dereferenceable(2064) %35, ptr noundef %36)
  call void @llvm.lifetime.end.p0(i64 8, ptr %6) #14
  br label %37

37:                                               ; preds = %30
  %38 = load i32, ptr %5, align 4, !tbaa !9
  %39 = add nsw i32 %38, 1
  store i32 %39, ptr %5, align 4, !tbaa !9
  br label %24, !llvm.loop !112

40:                                               ; preds = %29
  %41 = getelementptr inbounds nuw %class.btSoftRigidDynamicsWorld, ptr %7, i32 0, i32 9
  %42 = load ptr, ptr %41, align 8, !tbaa !26
  %43 = load ptr, ptr %42, align 8, !tbaa !24
  %44 = getelementptr inbounds ptr, ptr %43, i64 8
  %45 = load ptr, ptr %44, align 8
  call void %45(ptr noundef nonnull align 8 dereferenceable(20) %42)
  ret void
}